; Function Attrs: nounwind uwtable
define ptr @l_Lean_Meta_getStringValue_x3f(ptr noundef %0) local_unnamed_addr #1 {
  %2 = ptrtoint ptr %0 to i64
  %3 = and i64 %2, 1
  %.not.i28 = icmp eq i64 %3, 0
  br i1 %.not.i28, label %lean_obj_tag.exit.thread, label %lean_obj_tag.exit

lean_obj_tag.exit:                                ; preds = %1
  %4 = and i64 %2, 8589934590
  %5 = icmp eq i64 %4, 18
  br i1 %5, label %8, label %lean_dec.exit20

lean_obj_tag.exit.thread:                         ; preds = %1
  %6 = getelementptr i8, ptr %0, i64 4
  %.val.i = load i32, ptr %6, align 4
  %.mask = and i32 %.val.i, -16777216
  %7 = icmp eq i32 %.mask, 150994944
  br i1 %7, label %8, label %.thread

8:                                                ; preds = %lean_obj_tag.exit.thread, %lean_obj_tag.exit
  %9 = getelementptr inbounds nuw i8, ptr %0, i64 8
  %10 = load ptr, ptr %9, align 8, !tbaa !5
  %11 = ptrtoint ptr %10 to i64
  %12 = and i64 %11, 1
  %.not = icmp eq i64 %12, 0
  br i1 %.not, label %13, label %lean_inc.exit18

13:                                               ; preds = %8
  %.val.i29 = load i32, ptr %10, align 4, !tbaa !9
  %14 = icmp sgt i32 %.val.i29, 0
  br i1 %14, label %15, label %17, !prof !12

15:                                               ; preds = %13
  %16 = add nuw i32 %.val.i29, 1
  store i32 %16, ptr %10, align 4, !tbaa !9
  br label %lean_inc.exit18

17:                                               ; preds = %13
  %.not.i30 = icmp eq i32 %.val.i29, 0
  br i1 %.not.i30, label %lean_inc.exit18, label %18

18:                                               ; preds = %17
  tail call void @lean_inc_ref_cold(ptr noundef nonnull %10) #4
  br label %lean_inc.exit18

lean_inc.exit18:                                  ; preds = %18, %17, %15, %8
  br i1 %.not.i28, label %19, label %lean_dec.exit21

19:                                               ; preds = %lean_inc.exit18
  %20 = load i32, ptr %0, align 4, !tbaa !9
  %21 = icmp sgt i32 %20, 1
  br i1 %21, label %22, label %24, !prof !12

22:                                               ; preds = %19
  %23 = add nsw i32 %20, -1
  store i32 %23, ptr %0, align 4, !tbaa !9
  br label %lean_dec.exit21

24:                                               ; preds = %19
  %.not.i = icmp eq i32 %20, 0
  br i1 %.not.i, label %lean_dec.exit21, label %25

25:                                               ; preds = %24
  tail call void @lean_dec_ref_cold(ptr noundef nonnull %0) #4
  br label %lean_dec.exit21

lean_dec.exit21:                                  ; preds = %25, %24, %22, %lean_inc.exit18
  br i1 %.not, label %lean_obj_tag.exit34, label %lean_obj_tag.exit34.thread

lean_obj_tag.exit34:                              ; preds = %lean_dec.exit21
  %26 = getelementptr i8, ptr %10, i64 4
  %.val.i33 = load i32, ptr %26, align 4
  %27 = icmp ult i32 %.val.i33, 16777216
  br i1 %27, label %30, label %37

lean_obj_tag.exit34.thread:                       ; preds = %lean_dec.exit21
  %28 = and i64 %11, 8589934590
  %29 = icmp eq i64 %28, 0
  br i1 %29, label %lean_dec.exit20, label %37

30:                                               ; preds = %lean_obj_tag.exit34
  %31 = load i32, ptr %10, align 4, !tbaa !9
  %32 = icmp sgt i32 %31, 1
  br i1 %32, label %33, label %35, !prof !12

33:                                               ; preds = %30
  %34 = add nsw i32 %31, -1
  store i32 %34, ptr %10, align 4, !tbaa !9
  br label %lean_dec.exit20

35:                                               ; preds = %30
  %.not.i22 = icmp eq i32 %31, 0
  br i1 %.not.i22, label %lean_dec.exit20, label %36

36:                                               ; preds = %35
  tail call void @lean_dec_ref_cold(ptr noundef nonnull %10) #4
  br label %lean_dec.exit20

37:                                               ; preds = %lean_obj_tag.exit34.thread, %lean_obj_tag.exit34
  %.val = load i32, ptr %10, align 4, !tbaa !9
  %38 = icmp eq i32 %.val, 1
  br i1 %38, label %lean_dec.exit20, label %39

39:                                               ; preds = %37
  %40 = getelementptr inbounds nuw i8, ptr %10, i64 8
  %41 = load ptr, ptr %40, align 8, !tbaa !5
  %42 = ptrtoint ptr %41 to i64
  %43 = and i64 %42, 1
  %.not40 = icmp eq i64 %43, 0
  br i1 %.not40, label %44, label %lean_inc.exit

44:                                               ; preds = %39
  %.val.i35 = load i32, ptr %41, align 4, !tbaa !9
  %45 = icmp sgt i32 %.val.i35, 0
  br i1 %45, label %46, label %48, !prof !12

46:                                               ; preds = %44
  %47 = add nuw i32 %.val.i35, 1
  store i32 %47, ptr %41, align 4, !tbaa !9
  br label %lean_inc.exit

48:                                               ; preds = %44
  %.not.i36 = icmp eq i32 %.val.i35, 0
  br i1 %.not.i36, label %lean_inc.exit, label %49

49:                                               ; preds = %48
  tail call void @lean_inc_ref_cold(ptr noundef nonnull %41) #4
  br label %lean_inc.exit

lean_inc.exit:                                    ; preds = %49, %48, %46, %39
  br i1 %.not, label %50, label %lean_dec.exit19

50:                                               ; preds = %lean_inc.exit
  %51 = load i32, ptr %10, align 4, !tbaa !9
  %52 = icmp sgt i32 %51, 1
  br i1 %52, label %53, label %55, !prof !12

53:                                               ; preds = %50
  %54 = add nsw i32 %51, -1
  store i32 %54, ptr %10, align 4, !tbaa !9
  br label %lean_dec.exit19

55:                                               ; preds = %50
  %.not.i24 = icmp eq i32 %51, 0
  br i1 %.not.i24, label %lean_dec.exit19, label %56

56:                                               ; preds = %55
  tail call void @lean_dec_ref_cold(ptr noundef nonnull %10) #4
  br label %lean_dec.exit19

lean_dec.exit19:                                  ; preds = %56, %55, %53, %lean_inc.exit
  tail call void @lean_inc_heartbeat() #4
  %57 = tail call noalias ptr @mi_malloc_small(i64 noundef 16) #4
  %58 = icmp eq ptr %57, null
  br i1 %58, label %59, label %lean_alloc_ctor.exit

59:                                               ; preds = %lean_dec.exit19
  tail call void @lean_internal_panic_out_of_memory() #5
  unreachable

lean_alloc_ctor.exit:                             ; preds = %lean_dec.exit19
  %60 = getelementptr inbounds nuw i8, ptr %57, i64 4
  store i32 1, ptr %57, align 4, !tbaa !9
  store i32 16842768, ptr %60, align 4
  %61 = getelementptr inbounds nuw i8, ptr %57, i64 8
  store ptr %41, ptr %61, align 8, !tbaa !5
  br label %lean_dec.exit20

.thread:                                          ; preds = %lean_obj_tag.exit.thread
  %62 = load i32, ptr %0, align 4, !tbaa !9
  %63 = icmp sgt i32 %62, 1
  br i1 %63, label %64, label %66, !prof !12

64:                                               ; preds = %.thread
  %65 = add nsw i32 %62, -1
  store i32 %65, ptr %0, align 4, !tbaa !9
  br label %lean_dec.exit20

66:                                               ; preds = %.thread
  %.not.i26 = icmp eq i32 %62, 0
  br i1 %.not.i26, label %lean_dec.exit20, label %67

67:                                               ; preds = %66
  tail call void @lean_dec_ref_cold(ptr noundef nonnull %0) #4
  br label %lean_dec.exit20

lean_dec.exit20:                                  ; preds = %lean_obj_tag.exit34.thread, %lean_obj_tag.exit, %64, %66, %67, %33, %35, %36, %37, %lean_alloc_ctor.exit
  %.2 = phi ptr [ %57, %lean_alloc_ctor.exit ], [ %10, %37 ], [ inttoptr (i64 1 to ptr), %36 ], [ inttoptr (i64 1 to ptr), %35 ], [ inttoptr (i64 1 to ptr), %33 ], [ inttoptr (i64 1 to ptr), %67 ], [ inttoptr (i64 1 to ptr), %66 ], [ inttoptr (i64 1 to ptr), %64 ], [ inttoptr (i64 1 to ptr), %lean_obj_tag.exit ], [ inttoptr (i64 1 to ptr), %lean_obj_tag.exit34.thread ]
  ret ptr %.2
}